target datalayout = "e-m:e-p270:32:32-p271:32:32-p272:64:64-i64:64-i128:128-f80:128-n8:16:32:64-S128"
target triple = "x86_64-unknown-linux-gnu"

%"struct.icu_75::UniProps" = type { i32, i32, [75 x i8], [25 x i32], [4 x i8], i32, i32, i32, i32, i32, i32, i32, ptr, ptr, ptr, %"class.icu_75::UnicodeString", %"class.icu_75::UnicodeString", %"class.icu_75::UnicodeString", %"class.icu_75::UnicodeString", %"class.icu_75::UnicodeSet" }
%"class.icu_75::UnicodeString" = type { %"class.icu_75::Replaceable", %"union.icu_75::UnicodeString::StackBufferOrFields" }
%"class.icu_75::Replaceable" = type { %"class.icu_75::UObject" }
%"class.icu_75::UObject" = type { ptr }
%"union.icu_75::UnicodeString::StackBufferOrFields" = type { %struct.anon.0, [32 x i8] }
%struct.anon.0 = type { i16, i32, i32, ptr }
%"class.icu_75::UnicodeSet" = type <{ %"class.icu_75::UnicodeFilter", ptr, i32, i32, i8, [7 x i8], ptr, ptr, i32, [4 x i8], ptr, i32, [4 x i8], ptr, ptr, [25 x i32], [4 x i8] }>
%"class.icu_75::UnicodeFilter" = type { %"class.icu_75::UnicodeFunctor", %"class.icu_75::UnicodeMatcher" }
%"class.icu_75::UnicodeFunctor" = type { %"class.icu_75::UObject" }
%"class.icu_75::UnicodeMatcher" = type { ptr }
%"class.icu_75::PreparsedUCD" = type { ptr, ptr, i32, i32, i32, i32, i32, ptr, ptr, [4 x i8], %"struct.icu_75::UniProps", %"struct.icu_75::UniProps", %"struct.icu_75::UniProps", %"class.icu_75::UnicodeSet", [3 x [4096 x i8]] }

@stderr = external global ptr, align 8
@.str.21 = private unnamed_addr constant [72 x i8] c"error in preparsed UCD: '%s' is not a valid Unicode string on line %ld\0A\00", align 1

; Function Attrs: mustprogress nounwind uwtable
define internal noundef signext i8 @_ZL9U_FAILURE10UErrorCode(i32 noundef %code) #0 {
entry:
  %code.addr = alloca i32, align 4
  store i32 %code, ptr %code.addr, align 4
  %0 = load i32, ptr %code.addr, align 4
  %cmp = icmp sgt i32 %0, 0
  %conv = zext i1 %cmp to i8
  ret i8 %conv
}

; Function Attrs: mustprogress nounwind uwtable
define linkonce_odr noundef i32 @_ZNK6icu_7513UnicodeString11getCapacityEv(ptr noundef nonnull align 8 dereferenceable(64) %this) #0 comdat align 2 {
entry:
  %this.addr = alloca ptr, align 8
  store ptr %this, ptr %this.addr, align 8
  %this1 = load ptr, ptr %this.addr, align 8
  %fUnion = getelementptr inbounds %"class.icu_75::UnicodeString", ptr %this1, i32 0, i32 1
  %fLengthAndFlags = getelementptr inbounds %struct.anon.0, ptr %fUnion, i32 0, i32 0
  %0 = load i16, ptr %fLengthAndFlags, align 8
  %conv = sext i16 %0 to i32
  %and = and i32 %conv, 2
  %tobool = icmp ne i32 %and, 0
  br i1 %tobool, label %cond.true, label %cond.false

cond.true:                                        ; preds = %entry
  br label %cond.end

cond.false:                                       ; preds = %entry
  %fUnion2 = getelementptr inbounds %"class.icu_75::UnicodeString", ptr %this1, i32 0, i32 1
  %fCapacity = getelementptr inbounds %struct.anon.0, ptr %fUnion2, i32 0, i32 2
  %1 = load i32, ptr %fCapacity, align 8
  br label %cond.end

cond.end:                                         ; preds = %cond.false, %cond.true
  %cond = phi i32 [ 27, %cond.true ], [ %1, %cond.false ]
  ret i32 %cond
}

; Function Attrs: mustprogress nounwind uwtable
define linkonce_odr noundef ptr @_ZN6icu_7510toUCharPtrEPDs(ptr noundef %p) #0 comdat {
entry:
  %p.addr = alloca ptr, align 8
  store ptr %p, ptr %p.addr, align 8
  %0 = load ptr, ptr %p.addr, align 8
  call void asm sideeffect "", "rm,~{memory},~{dirflag},~{fpsr},~{flags}"(ptr %0) #10, !srcloc !15
  %1 = load ptr, ptr %p.addr, align 8
  ret ptr %1
}

; Function Attrs: mustprogress uwtable
define void @_ZN6icu_7512PreparsedUCD11parseStringEPKcRNS_13UnicodeStringER10UErrorCode(ptr noundef nonnull align 8 dereferenceable(14640) %this, ptr noundef %s, ptr noundef nonnull align 8 dereferenceable(64) %uni, ptr noundef nonnull align 4 dereferenceable(4) %errorCode) #1 align 2 {
entry:
  %this.addr = alloca ptr, align 8
  %s.addr = alloca ptr, align 8
  %uni.addr = alloca ptr, align 8
  %errorCode.addr = alloca ptr, align 8
  %buffer = alloca ptr, align 8
  %length = alloca i32, align 4
  store ptr %this, ptr %this.addr, align 8
  store ptr %s, ptr %s.addr, align 8
  store ptr %uni, ptr %uni.addr, align 8
  store ptr %errorCode, ptr %errorCode.addr, align 8
  %this1 = load ptr, ptr %this.addr, align 8
  %0 = load ptr, ptr %uni.addr, align 8
  %call = call noundef ptr @_ZN6icu_7513UnicodeString9getBufferEi(ptr noundef nonnull align 8 dereferenceable(64) %0, i32 noundef -1)
  %call2 = call noundef ptr @_ZN6icu_7510toUCharPtrEPDs(ptr noundef %call)
  store ptr %call2, ptr %buffer, align 8
  %1 = load ptr, ptr %s.addr, align 8
  %2 = load ptr, ptr %buffer, align 8
  %3 = load ptr, ptr %uni.addr, align 8
  %call3 = call noundef i32 @_ZNK6icu_7513UnicodeString11getCapacityEv(ptr noundef nonnull align 8 dereferenceable(64) %3)
  %4 = load ptr, ptr %errorCode.addr, align 8
  %call4 = call i32 @u_parseString(ptr noundef %1, ptr noundef %2, i32 noundef %call3, ptr noundef null, ptr noundef %4)
  store i32 %call4, ptr %length, align 4
  %5 = load ptr, ptr %errorCode.addr, align 8
  %6 = load i32, ptr %5, align 4
  %cmp = icmp eq i32 %6, 15
  br i1 %cmp, label %if.then, label %if.end

if.then:                                          ; preds = %entry
  %7 = load ptr, ptr %errorCode.addr, align 8
  store i32 0, ptr %7, align 4
  %8 = load ptr, ptr %uni.addr, align 8
  call void @_ZN6icu_7513UnicodeString13releaseBufferEi(ptr noundef nonnull align 8 dereferenceable(64) %8, i32 noundef 0)
  %9 = load ptr, ptr %uni.addr, align 8
  %10 = load i32, ptr %length, align 4
  %call5 = call noundef ptr @_ZN6icu_7513UnicodeString9getBufferEi(ptr noundef nonnull align 8 dereferenceable(64) %9, i32 noundef %10)
  %call6 = call noundef ptr @_ZN6icu_7510toUCharPtrEPDs(ptr noundef %call5)
  store ptr %call6, ptr %buffer, align 8
  %11 = load ptr, ptr %s.addr, align 8
  %12 = load ptr, ptr %buffer, align 8
  %13 = load ptr, ptr %uni.addr, align 8
  %call7 = call noundef i32 @_ZNK6icu_7513UnicodeString11getCapacityEv(ptr noundef nonnull align 8 dereferenceable(64) %13)
  %14 = load ptr, ptr %errorCode.addr, align 8
  %call8 = call i32 @u_parseString(ptr noundef %11, ptr noundef %12, i32 noundef %call7, ptr noundef null, ptr noundef %14)
  store i32 %call8, ptr %length, align 4
  br label %if.end

if.end:                                           ; preds = %if.then, %entry
  %15 = load ptr, ptr %uni.addr, align 8
  %16 = load i32, ptr %length, align 4
  call void @_ZN6icu_7513UnicodeString13releaseBufferEi(ptr noundef nonnull align 8 dereferenceable(64) %15, i32 noundef %16)
  %17 = load ptr, ptr %errorCode.addr, align 8
  %18 = load i32, ptr %17, align 4
  %call9 = call noundef signext i8 @_ZL9U_FAILURE10UErrorCode(i32 noundef %18)
  %tobool = icmp ne i8 %call9, 0
  br i1 %tobool, label %if.then10, label %if.end12

if.then10:                                        ; preds = %if.end
  %19 = load ptr, ptr @stderr, align 8
  %20 = load ptr, ptr %s.addr, align 8
  %lineNumber = getelementptr inbounds %"class.icu_75::PreparsedUCD", ptr %this1, i32 0, i32 5
  %21 = load i32, ptr %lineNumber, align 4
  %conv = sext i32 %21 to i64
  %call11 = call i32 (ptr, ptr, ...) @fprintf(ptr noundef %19, ptr noundef @.str.21, ptr noundef %20, i64 noundef %conv)
  br label %if.end12

if.end12:                                         ; preds = %if.then10, %if.end
  ret void
}