; Function Attrs: mustprogress uwtable
define void @_ZN6icu_7512PreparsedUCD11parseStringEPKcRNS_13UnicodeStringER10UErrorCode(ptr nocapture noundef nonnull readonly align 8 dereferenceable(14640) %this, ptr noundef %s, ptr noundef nonnull align 8 dereferenceable(64) %uni, ptr noundef nonnull align 4 dereferenceable(4) %errorCode) local_unnamed_addr #1 align 2 {
entry:
  %call = tail call noundef ptr @_ZN6icu_7513UnicodeString9getBufferEi(ptr noundef nonnull align 8 dereferenceable(64) %uni, i32 noundef -1)
  tail call void asm sideeffect "", "rm,~{memory},~{dirflag},~{fpsr},~{flags}"(ptr %call) #21, !srcloc !16
  %fUnion.i = getelementptr inbounds i8, ptr %uni, i64 8
  %0 = load i16, ptr %fUnion.i, align 8
  %1 = and i16 %0, 2
  %tobool.not.i = icmp eq i16 %1, 0
  %fCapacity.i = getelementptr inbounds i8, ptr %uni, i64 16
  %2 = load i32, ptr %fCapacity.i, align 8
  %cond.i = select i1 %tobool.not.i, i32 %2, i32 27
  %call4 = tail call i32 @u_parseString(ptr noundef %s, ptr noundef %call, i32 noundef %cond.i, ptr noundef null, ptr noundef nonnull %errorCode)
  %3 = load i32, ptr %errorCode, align 4
  %cmp = icmp eq i32 %3, 15
  br i1 %cmp, label %if.then, label %if.end

if.then:                                          ; preds = %entry
  store i32 0, ptr %errorCode, align 4
  tail call void @_ZN6icu_7513UnicodeString13releaseBufferEi(ptr noundef nonnull align 8 dereferenceable(64) %uni, i32 noundef 0)
  %call5 = tail call noundef ptr @_ZN6icu_7513UnicodeString9getBufferEi(ptr noundef nonnull align 8 dereferenceable(64) %uni, i32 noundef %call4)
  tail call void asm sideeffect "", "rm,~{memory},~{dirflag},~{fpsr},~{flags}"(ptr %call5) #21, !srcloc !16
  %4 = load i16, ptr %fUnion.i, align 8
  %5 = and i16 %4, 2
  %tobool.not.i15 = icmp eq i16 %5, 0
  %6 = load i32, ptr %fCapacity.i, align 8
  %cond.i17 = select i1 %tobool.not.i15, i32 %6, i32 27
  %call8 = tail call i32 @u_parseString(ptr noundef %s, ptr noundef %call5, i32 noundef %cond.i17, ptr noundef null, ptr noundef nonnull %errorCode)
  br label %if.end

if.end:                                           ; preds = %if.then, %entry
  %length.0 = phi i32 [ %call8, %if.then ], [ %call4, %entry ]
  tail call void @_ZN6icu_7513UnicodeString13releaseBufferEi(ptr noundef nonnull align 8 dereferenceable(64) %uni, i32 noundef %length.0)
  %7 = load i32, ptr %errorCode, align 4
  %cmp.i = icmp slt i32 %7, 1
  br i1 %cmp.i, label %if.end12, label %if.then10

if.then10:                                        ; preds = %if.end
  %8 = load ptr, ptr @stderr, align 8
  %lineNumber = getelementptr inbounds i8, ptr %this, i64 28
  %9 = load i32, ptr %lineNumber, align 4
  %conv = sext i32 %9 to i64
  %call11 = tail call i32 (ptr, ptr, ...) @fprintf(ptr noundef %8, ptr noundef nonnull @.str.21, ptr noundef %s, i64 noundef %conv) #24
  br label %if.end12

if.end12:                                         ; preds = %if.then10, %if.end
  ret void
}